CCS PCM C Compiler, Version 4.023, 25097               26-jun-09 04:25

               Filename: Prueba_key&display.lst

               ROM used: 533 words (7%)
                         Largest free fragment is 2048
               RAM used: 13 (4%) at main() level
                         25 (7%) worst case
               Stack:    5 locations

*
0000:  MOVLW  00
0001:  MOVWF  0A
0002:  GOTO   1D0
0003:  NOP
.................... #include <16F876.h> 
.................... //////// Standard Header file for the PIC16F876 device //////////////// 
.................... #device PIC16F876 
.................... #list 
....................  
.................... #fuses XT,NOWDT,NOPROTECT,NOLVP 
.................... #use delay(clock= 4000000)         
*
0034:  MOVLW  2A
0035:  MOVWF  04
0036:  BCF    03.7
0037:  MOVF   00,W
0038:  BTFSC  03.2
0039:  GOTO   048
003A:  MOVLW  01
003B:  MOVWF  78
003C:  CLRF   77
003D:  DECFSZ 77,F
003E:  GOTO   03D
003F:  DECFSZ 78,F
0040:  GOTO   03C
0041:  MOVLW  4A
0042:  MOVWF  77
0043:  DECFSZ 77,F
0044:  GOTO   043
0045:  GOTO   046
0046:  DECFSZ 00,F
0047:  GOTO   03A
0048:  RETLW  00
....................  
.................... #include <LCD1.c>            // Incluimos el driver LCD1.c que contiene las funciones de control del LCD. 
.................... /////////////////////////////////////////////////////////////////////////// 
.................... ////                             LCDD.C                                //// 
.................... ////                 Driver for common LCD modules                     //// 
.................... ////                                                                   //// 
.................... ////  lcd_init()   Must be called before any other function.           //// 
.................... ////                                                                   //// 
.................... ////  lcd_putc(c)  Will display c on the next position of the LCD.     //// 
.................... ////                     The following have special meaning:           //// 
.................... ////                      \f  Clear display                            //// 
.................... ////                      \n  Go to start of second line               //// 
.................... ////                      \b  Move back one position                   //// 
.................... ////                                                                   //// 
.................... ////  lcd_gotoxy(x,y) Set write position on LCD (upper left is 1,1)    //// 
.................... ////                                                                   //// 
.................... ////  lcd_getc(x,y)   Returns character at position x,y on LCD         //// 
.................... ////                                                                   //// 
.................... /////////////////////////////////////////////////////////////////////////// 
.................... ////        (C) Copyright 1996,2003 Custom Computer Services           //// 
.................... //// This source code may only be used by licensed users of the CCS C  //// 
.................... //// compiler.  This source code may only be distributed to other      //// 
.................... //// licensed users of the CCS C compiler.  No other use, reproduction //// 
.................... //// or distribution is permitted without written permission.          //// 
.................... //// Derivative programs created using this software in object code    //// 
.................... //// form are not restricted in any way.                               //// 
.................... /////////////////////////////////////////////////////////////////////////// 
....................  
.................... // As defined in the following structure the pin connection is as follows: 
.................... //     D0  enable 
.................... //     D1  rs 
.................... //     D2  rw 
.................... //     D4  D4 
.................... //     D5  D5 
.................... //     D6  D6 
.................... //     D7  D7 
.................... // 
.................... //   LCD pins D0-D3 are not used and PIC D3 is not used. 
....................  
.................... // Un-comment the following define to use port B 
.................... #define use_portb_lcd TRUE 
....................  
....................  
.................... struct lcd_pin_map {                 // This structure is overlayed 
....................            BOOLEAN enable;           // on to an I/O port to gain 
....................            BOOLEAN rs;               // access to the LCD pins. 
....................            BOOLEAN rw;               // The bits are allocated from 
....................            BOOLEAN unused;           // low order up.  ENABLE will 
....................            int     data : 4;         // be pin B0. 
....................         } lcd; 
....................  
....................  
.................... #if defined(__PCH__) 
.................... #if defined use_portb_lcd 
....................    #byte lcd = 0xF81                   // This puts the entire structure 
.................... #else 
....................    #byte lcd = 0xF82                   // This puts the entire structure 
.................... #endif 
.................... #else 
.................... #if defined use_portb_lcd 
....................    #byte lcd = 6                  // on to port B (at address 6) 
.................... #else 
....................    #byte lcd = 7                 // on to port C (at address 7) 
.................... #endif 
.................... #endif 
....................  
.................... #if defined use_portb_lcd 
....................    #define set_tris_lcd(x) set_tris_b(x) 
.................... #else 
....................    #define set_tris_lcd(x) set_tris_c(x) 
.................... #endif 
....................  
....................  
.................... #define lcd_type 2           // 0=5x7, 1=5x10, 2=2 lines 
.................... #define lcd_line_two 0x40    // LCD RAM address for the second line 
....................  
....................  
.................... BYTE const LCD_INIT_STRING[4] = {0x20 | (lcd_type << 2), 0xc, 1, 6}; 
....................                              // These bytes need to be sent to the LCD 
....................                              // to start it up. 
....................  
....................  
....................                              // The following are used for setting 
....................                              // the I/O port direction register. 
....................  
.................... struct lcd_pin_map const LCD_WRITE = {0,0,0,0,0}; // For write mode all pins are out 
.................... struct lcd_pin_map const LCD_READ = {0,0,0,0,15}; // For read mode data pins are in 
....................  
....................  
....................  
.................... BYTE lcd_read_byte() { 
....................       BYTE low,high; 
....................       set_tris_lcd(LCD_READ); 
*
0056:  MOVLW  F0
0057:  BSF    03.5
0058:  MOVWF  06
....................       lcd.rw = 1; 
0059:  BCF    03.5
005A:  BSF    06.2
....................       delay_cycles(1); 
005B:  NOP
....................       lcd.enable = 1; 
005C:  BSF    06.0
....................       delay_cycles(1); 
005D:  NOP
....................       high = lcd.data; 
005E:  MOVF   06,W
005F:  SWAPF  06,W
0060:  ANDLW  0F
0061:  MOVWF  31
....................       lcd.enable = 0; 
0062:  BCF    06.0
....................       delay_cycles(1); 
0063:  NOP
....................       lcd.enable = 1; 
0064:  BSF    06.0
....................       delay_us(1); 
0065:  NOP
....................       low = lcd.data; 
0066:  MOVF   06,W
0067:  SWAPF  06,W
0068:  ANDLW  0F
0069:  MOVWF  30
....................       lcd.enable = 0; 
006A:  BCF    06.0
....................       set_tris_lcd(LCD_WRITE); 
006B:  MOVLW  00
006C:  BSF    03.5
006D:  MOVWF  06
....................       return( (high<<4) | low); 
006E:  BCF    03.5
006F:  SWAPF  31,W
0070:  MOVWF  77
0071:  MOVLW  F0
0072:  ANDWF  77,F
0073:  MOVF   77,W
0074:  IORWF  30,W
0075:  MOVWF  78
.................... } 
....................  
....................  
.................... void lcd_send_nibble( BYTE n ) { 
....................       lcd.data = n; 
*
0049:  SWAPF  31,W
004A:  ANDLW  F0
004B:  MOVWF  77
004C:  MOVLW  0F
004D:  ANDWF  06,W
004E:  IORWF  77,W
004F:  MOVWF  06
....................       delay_cycles(1); 
0050:  NOP
....................       lcd.enable = 1; 
0051:  BSF    06.0
....................       delay_us(2); 
0052:  GOTO   053
....................       lcd.enable = 0; 
0053:  BCF    06.0
.................... } 
0054:  RETLW  00
....................  
....................  
.................... void lcd_send_byte( BYTE address, BYTE n ) { 
....................  
....................       lcd.rs = 0; 
0055:  BCF    06.1
....................       while ( bit_test(lcd_read_byte(),7) ) ; 
*
0076:  MOVF   78,W
0077:  MOVWF  30
0078:  BTFSC  30.7
0079:  GOTO   056
....................       lcd.rs = address; 
007A:  BTFSS  2E.0
007B:  BCF    06.1
007C:  BTFSC  2E.0
007D:  BSF    06.1
....................       delay_cycles(1); 
007E:  NOP
....................       lcd.rw = 0; 
007F:  BCF    06.2
....................       delay_cycles(1); 
0080:  NOP
....................       lcd.enable = 0; 
0081:  BCF    06.0
....................       lcd_send_nibble(n >> 4); 
0082:  SWAPF  2F,W
0083:  MOVWF  30
0084:  MOVLW  0F
0085:  ANDWF  30,F
0086:  MOVF   30,W
0087:  MOVWF  31
0088:  CALL   049
....................       lcd_send_nibble(n & 0xf); 
0089:  MOVF   2F,W
008A:  ANDLW  0F
008B:  MOVWF  30
008C:  MOVWF  31
008D:  CALL   049
.................... } 
008E:  RETLW  00
....................  
....................  
.................... void lcd_init() { 
....................     BYTE i; 
....................     set_tris_lcd(LCD_WRITE); 
008F:  MOVLW  00
0090:  BSF    03.5
0091:  MOVWF  06
....................     lcd.rs = 0; 
0092:  BCF    03.5
0093:  BCF    06.1
....................     lcd.rw = 0; 
0094:  BCF    06.2
....................     lcd.enable = 0; 
0095:  BCF    06.0
....................     delay_ms(15); 
0096:  MOVLW  0F
0097:  MOVWF  2A
0098:  CALL   034
....................     for(i=1;i<=3;++i) { 
0099:  MOVLW  01
009A:  MOVWF  26
009B:  MOVF   26,W
009C:  SUBLW  03
009D:  BTFSS  03.0
009E:  GOTO   0A7
....................        lcd_send_nibble(3); 
009F:  MOVLW  03
00A0:  MOVWF  31
00A1:  CALL   049
....................        delay_ms(5); 
00A2:  MOVLW  05
00A3:  MOVWF  2A
00A4:  CALL   034
....................     } 
00A5:  INCF   26,F
00A6:  GOTO   09B
....................     lcd_send_nibble(2); 
00A7:  MOVLW  02
00A8:  MOVWF  31
00A9:  CALL   049
....................     for(i=0;i<=3;++i) 
00AA:  CLRF   26
00AB:  MOVF   26,W
00AC:  SUBLW  03
00AD:  BTFSS  03.0
00AE:  GOTO   0B8
....................        lcd_send_byte(0,LCD_INIT_STRING[i]); 
00AF:  MOVF   26,W
00B0:  CALL   004
00B1:  MOVWF  27
00B2:  CLRF   2E
00B3:  MOVF   27,W
00B4:  MOVWF  2F
00B5:  CALL   055
00B6:  INCF   26,F
00B7:  GOTO   0AB
.................... } 
00B8:  BCF    0A.3
00B9:  BCF    0A.4
00BA:  GOTO   1DF (RETURN)
....................  
....................  
.................... void lcd_gotoxy( BYTE x, BYTE y) { 
....................    BYTE address; 
....................  
....................    if(y!=1) 
*
014D:  DECFSZ 2B,W
014E:  GOTO   150
014F:  GOTO   153
....................      address=lcd_line_two; 
0150:  MOVLW  40
0151:  MOVWF  2C
....................    else 
0152:  GOTO   154
....................      address=0; 
0153:  CLRF   2C
....................    address+=x-1; 
0154:  MOVLW  01
0155:  SUBWF  2A,W
0156:  ADDWF  2C,F
....................    lcd_send_byte(0,0x80|address); 
0157:  MOVF   2C,W
0158:  IORLW  80
0159:  MOVWF  2D
015A:  CLRF   2E
015B:  MOVF   2D,W
015C:  MOVWF  2F
015D:  CALL   055
.................... } 
015E:  RETLW  00
....................  
.................... void lcd_putc( char c) { 
....................    switch (c) { 
015F:  MOVF   29,W
0160:  XORLW  0C
0161:  BTFSC  03.2
0162:  GOTO   16A
0163:  XORLW  06
0164:  BTFSC  03.2
0165:  GOTO   172
0166:  XORLW  02
0167:  BTFSC  03.2
0168:  GOTO   178
0169:  GOTO   17D
....................      case '\f'   : lcd_send_byte(0,1); 
016A:  CLRF   2E
016B:  MOVLW  01
016C:  MOVWF  2F
016D:  CALL   055
....................                    delay_ms(2); 
016E:  MOVLW  02
016F:  MOVWF  2A
0170:  CALL   034
....................                                            break; 
0171:  GOTO   183
....................      case '\n'   : lcd_gotoxy(1,2);        break; 
0172:  MOVLW  01
0173:  MOVWF  2A
0174:  MOVLW  02
0175:  MOVWF  2B
0176:  CALL   14D
0177:  GOTO   183
....................      case '\b'   : lcd_send_byte(0,0x10);  break; 
0178:  CLRF   2E
0179:  MOVLW  10
017A:  MOVWF  2F
017B:  CALL   055
017C:  GOTO   183
....................      default     : lcd_send_byte(1,c);     break; 
017D:  MOVLW  01
017E:  MOVWF  2E
017F:  MOVF   29,W
0180:  MOVWF  2F
0181:  CALL   055
0182:  GOTO   183
....................    } 
.................... } 
0183:  RETLW  00
....................  
.................... char lcd_getc( BYTE x, BYTE y) { 
....................    char value; 
....................  
....................     lcd_gotoxy(x,y); 
....................     while ( bit_test(lcd_read_byte(),7) ); // wait until busy flag is low 
....................     lcd.rs=1; 
....................     value = lcd_read_byte(); 
....................     lcd.rs=0; 
....................     return(value); 
.................... } 
....................  
.................... #include <kbd1.c>            // Incluimos el driver kbd1.c que contiene las funciones de control del Teclado. 
.................... /////////////////////////////////////////////////////////////////////////// 
.................... ////                             KBDD.C                                //// 
.................... ////                  Generic keypad scan driver                       //// 
.................... ////                                                                   //// 
.................... ////  kbd_init()   Must be called before any other function.           //// 
.................... ////                                                                   //// 
.................... ////  c = kbd_getc(c)  Will return a key value if pressed or /0 if not //// 
.................... ////                   This function should be called frequently so as //// 
.................... ////                   not to miss a key press.                        //// 
.................... ////                                                                   //// 
.................... /////////////////////////////////////////////////////////////////////////// 
.................... ////        (C) Copyright 1996,2003 Custom Computer Services           //// 
.................... //// This source code may only be used by licensed users of the CCS C  //// 
.................... //// compiler.  This source code may only be distributed to other      //// 
.................... //// licensed users of the CCS C compiler.  No other use, reproduction //// 
.................... //// or distribution is permitted without written permission.          //// 
.................... //// Derivative programs created using this software in object code    //// 
.................... //// form are not restricted in any way.                               //// 
.................... /////////////////////////////////////////////////////////////////////////// 
....................  
.................... ////////////////// The following defines the keypad layout on port D 
....................  
.................... // Un-comment the following define to use port B 
.................... #define use_portb_kbd TRUE 
....................  
.................... // Make sure the port used has pull-up resistors (or the LCD) on 
.................... // the column pins 
....................  
....................  
.................... #if defined(__PCH__) 
.................... #if defined use_portb_kbd 
....................    #byte kbd = 0xF81                   // This puts the entire structure 
.................... #else 
....................    #byte kbd = 0xF82                   // This puts the entire structure 
.................... #endif 
.................... #else 
.................... #if defined use_portb_kbd 
....................    #byte kbd = 6                  // on to port B (at address 6) 
.................... #else 
....................    #byte kbd = 7                 // on to port C (at address 7) 
.................... #endif 
.................... #endif 
....................  
.................... #if defined use_portb_kbd 
....................    #define set_tris_kbd(x) set_tris_b(x) 
.................... #else 
....................    #define set_tris_kbd(x) set_tris_c(x) 
.................... #endif 
....................  
....................  
....................  
.................... //Keypad connection:   (for example column 0 is B2) 
.................... //                Bx: 
....................  
.................... #ifdef blue_keypad  ///////////////////////////////////// For the blue keypad 
.................... #define COL0 (1 << 2) 
.................... #define COL1 (1 << 3) 
.................... #define COL2 (1 << 6) 
....................  
.................... #define ROW0 (1 << 4) 
.................... #define ROW1 (1 << 7) 
.................... #define ROW2 (1 << 1) 
.................... #define ROW3 (1 << 5) 
....................  
.................... #else ////////////////////////////////////////////////// For the black keypad 
.................... #define COL0 (1 << 5) 
.................... #define COL1 (1 << 6) 
.................... #define COL2 (1 << 7) 
....................  
.................... #define ROW0 (1 << 1) 
.................... #define ROW1 (1 << 2) 
.................... #define ROW2 (1 << 3) 
.................... #define ROW3 (1 << 4) 
....................  
.................... #endif 
....................  
.................... #define ALL_ROWS (ROW0|ROW1|ROW2|ROW3) 
.................... #define ALL_PINS (ALL_ROWS|COL0|COL1|COL2) 
....................  
.................... // Keypad layout: 
.................... char const KEYS[4][3] = {{'1','2','3'}, 
....................                          {'4','5','6'}, 
....................                          {'7','8','9'}, 
....................                          {'*','0','#'}}; 
....................  
.................... #define KBD_DEBOUNCE_FACTOR 33    // Set this number to apx n/333 where 
....................                                   // n is the number of times you expect 
....................                                   // to call kbd_getc each second 
....................  
....................  
.................... void kbd_init() { 
.................... } 
*
00BB:  BCF    0A.3
00BC:  BCF    0A.4
00BD:  GOTO   1E0 (RETURN)
....................  
.................... char kbd_getc( ) { 
....................    static BYTE kbd_call_count; 
*
01D9:  BCF    03.5
01DA:  CLRF   20
....................    static short int kbd_down; 
01DB:  BCF    21.0
....................    static char last_key; 
01DC:  CLRF   22
....................    static BYTE col; 
01DD:  CLRF   23
....................  
....................    BYTE kchar; 
....................    BYTE row; 
....................  
....................    kchar='\0'; 
*
00E5:  CLRF   26
....................    if(++kbd_call_count>KBD_DEBOUNCE_FACTOR) { 
00E6:  INCF   20,F
00E7:  MOVF   20,W
00E8:  SUBLW  21
00E9:  BTFSC  03.0
00EA:  GOTO   144
....................        switch (col) { 
00EB:  MOVF   23,W
00EC:  BTFSC  03.2
00ED:  GOTO   0F5
00EE:  XORLW  01
00EF:  BTFSC  03.2
00F0:  GOTO   0FB
00F1:  XORLW  03
00F2:  BTFSC  03.2
00F3:  GOTO   101
00F4:  GOTO   107
....................          case 0   : set_tris_kbd(ALL_PINS&~COL0); 
00F5:  MOVLW  DE
00F6:  BSF    03.5
00F7:  MOVWF  06
....................                     kbd=~COL0&ALL_PINS; 
00F8:  BCF    03.5
00F9:  MOVWF  06
....................                     break; 
00FA:  GOTO   107
....................          case 1   : set_tris_kbd(ALL_PINS&~COL1); 
00FB:  MOVLW  BE
00FC:  BSF    03.5
00FD:  MOVWF  06
....................                     kbd=~COL1&ALL_PINS; 
00FE:  BCF    03.5
00FF:  MOVWF  06
....................                     break; 
0100:  GOTO   107
....................          case 2   : set_tris_kbd(ALL_PINS&~COL2); 
0101:  MOVLW  7E
0102:  BSF    03.5
0103:  MOVWF  06
....................                     kbd=~COL2&ALL_PINS; 
0104:  BCF    03.5
0105:  MOVWF  06
....................                     break; 
0106:  GOTO   107
....................        } 
....................  
....................        if(kbd_down) { 
0107:  BTFSS  21.0
0108:  GOTO   113
....................          if((kbd & (ALL_ROWS))==(ALL_ROWS)) { 
0109:  MOVF   06,W
010A:  ANDLW  1E
010B:  SUBLW  1E
010C:  BTFSS  03.2
010D:  GOTO   112
....................            kbd_down=FALSE; 
010E:  BCF    21.0
....................            kchar=last_key; 
010F:  MOVF   22,W
0110:  MOVWF  26
....................            last_key='\0'; 
0111:  CLRF   22
....................          } 
....................        } else { 
0112:  GOTO   143
....................           if((kbd & (ALL_ROWS))!=(ALL_ROWS)) { 
0113:  MOVF   06,W
0114:  ANDLW  1E
0115:  SUBLW  1E
0116:  BTFSC  03.2
0117:  GOTO   13E
....................              if((kbd & ROW0)==0) 
0118:  MOVF   06,W
0119:  ANDLW  02
011A:  BTFSS  03.2
011B:  GOTO   11E
....................                row=0; 
011C:  CLRF   27
....................              else if((kbd & ROW1)==0) 
011D:  GOTO   132
011E:  MOVF   06,W
011F:  ANDLW  04
0120:  BTFSS  03.2
0121:  GOTO   125
....................                row=1; 
0122:  MOVLW  01
0123:  MOVWF  27
....................              else if((kbd & ROW2)==0) 
0124:  GOTO   132
0125:  MOVF   06,W
0126:  ANDLW  08
0127:  BTFSS  03.2
0128:  GOTO   12C
....................                row=2; 
0129:  MOVLW  02
012A:  MOVWF  27
....................              else if((kbd & ROW3)==0) 
012B:  GOTO   132
012C:  MOVF   06,W
012D:  ANDLW  10
012E:  BTFSS  03.2
012F:  GOTO   132
....................                row=3; 
0130:  MOVLW  03
0131:  MOVWF  27
....................              last_key =KEYS[row][col]; 
0132:  MOVF   27,W
0133:  MOVWF  28
0134:  MOVLW  03
0135:  MOVWF  29
0136:  GOTO   0BE
0137:  MOVF   23,W
0138:  ADDWF  78,W
0139:  CALL   00C
013A:  MOVWF  78
013B:  MOVWF  22
....................              kbd_down = TRUE; 
013C:  BSF    21.0
....................           } else { 
013D:  GOTO   143
....................              ++col; 
013E:  INCF   23,F
....................              if(col==3) 
013F:  MOVF   23,W
0140:  SUBLW  03
0141:  BTFSC  03.2
....................                col=0; 
0142:  CLRF   23
....................           } 
....................        } 
....................       kbd_call_count=0; 
0143:  CLRF   20
....................    } 
....................   set_tris_kbd(ALL_PINS); 
0144:  MOVLW  FE
0145:  BSF    03.5
0146:  MOVWF  06
....................   return(kchar); 
0147:  BCF    03.5
0148:  MOVF   26,W
0149:  MOVWF  78
.................... } 
014A:  BCF    0A.3
014B:  BCF    0A.4
014C:  GOTO   1E4 (RETURN)
....................  
....................          
....................  
.................... void main() 
....................  
.................... { 
*
01D0:  CLRF   04
01D1:  BCF    03.7
01D2:  MOVLW  1F
01D3:  ANDWF  03,F
01D4:  BSF    03.5
01D5:  BSF    1F.0
01D6:  BSF    1F.1
01D7:  BSF    1F.2
01D8:  BCF    1F.3
....................  
....................    char k;  
....................    int8  x; 
....................        
....................    lcd_init();             // Inicializamos el LCD. 
*
01DE:  GOTO   08F
....................    kbd_init();              // Inicializamos el Teclado. 
01DF:  GOTO   0BB
....................    
....................    port_b_pullups(TRUE);          // Habilitamos las Resistencias pull up inernas en el puerto B 
01E0:  BSF    03.5
01E1:  BCF    01.7
....................     
....................                            
....................    while (TRUE) 
....................     
....................    { 
....................        
....................       do 
....................          { 
....................  
....................          k=kbd_getc();            // Leemos el caracter del teclado 
01E2:  BCF    03.5
01E3:  GOTO   0E5
01E4:  MOVF   78,W
01E5:  MOVWF  24
....................          x=k-'0';                 // Conversión numérica 
01E6:  MOVLW  30
01E7:  SUBWF  24,W
01E8:  MOVWF  25
....................        
....................          } 
....................  
....................       while (k==0);         // Lee el Teclado constantemente si se pulsa una tecla K es didtinto de cero 
01E9:  MOVF   24,F
01EA:  BTFSC  03.2
01EB:  GOTO   1E3
....................  
....................  
....................  
....................  
....................       lcd_gotoxy(1,1);      // Posicionamos el Cursor del LCD en la posición 1 línea 1. 
01EC:  MOVLW  01
01ED:  MOVWF  2A
01EE:  MOVWF  2B
01EF:  CALL   14D
....................             printf(lcd_putc,"Car=%1c",k);   // Escribimos 1 digitos de la variable "k" en formato caracter.  
01F0:  CLRF   26
01F1:  MOVF   26,W
01F2:  CALL   01C
01F3:  INCF   26,F
01F4:  MOVWF  77
01F5:  MOVWF  29
01F6:  CALL   15F
01F7:  MOVLW  04
01F8:  SUBWF  26,W
01F9:  BTFSS  03.2
01FA:  GOTO   1F1
01FB:  MOVF   24,W
01FC:  MOVWF  29
01FD:  CALL   15F
....................                   // (Imprime carácter) 
....................  
....................       lcd_gotoxy(8,1);      // Posicionamos el Cursor del LCD en la posición 8 línea 1. 
01FE:  MOVLW  08
01FF:  MOVWF  2A
0200:  MOVLW  01
0201:  MOVWF  2B
0202:  CALL   14D
....................       printf(lcd_putc,"Num=%3u",x);   // Escribimos 3 digitos de la variable "x" en formato entero y sin signo. 
0203:  CLRF   26
0204:  MOVF   26,W
0205:  CALL   028
0206:  INCF   26,F
0207:  MOVWF  77
0208:  MOVWF  29
0209:  CALL   15F
020A:  MOVLW  04
020B:  SUBWF  26,W
020C:  BTFSS  03.2
020D:  GOTO   204
020E:  MOVF   25,W
020F:  MOVWF  27
0210:  MOVLW  13
0211:  MOVWF  28
0212:  GOTO   199
....................                   // Imprime valor numérico    
....................                   
....................    } 
0213:  GOTO   1E3
.................... } 
0214:  SLEEP

Configuration Fuses:
   Word  1: 3F71   XT NOWDT PUT NOPROTECT BROWNOUT NOLVP NOCPD NOWRT NODEBUG
